Certificate:
    Data:
        Version: 3 (0x2)
        Serial Number: 1 (0x1)
        Signature Algorithm: sha256WithRSAEncryption
        Issuer: C=UK, ST=Warwickshire, L=Coventry, O=MEME/emailAddress=Callum@meme.cyber.test
        Validity
            Not Before: Feb 28 03:41:04 2021 GMT
            Not After : Feb 26 03:41:04 2031 GMT
        Subject: C=UK, ST=Coventry, O=MEME, CN=OpenVPN.meme.cyber.test/emailAddress=OpenVPN@meme.cyber.test
        Subject Public Key Info:
            Public Key Algorithm: rsaEncryption
                RSA Public-Key: (4096 bit)
                Modulus:
                    00:c1:33:81:c8:25:47:7b:75:dc:66:35:29:9e:9b:
                    eb:a0:72:50:f7:71:6b:e9:81:1f:53:92:d2:e9:b7:
                    f2:f1:14:83:37:29:a0:c3:af:3d:7c:75:4d:04:56:
                    d5:88:1a:88:3a:2e:c0:1e:35:4f:8a:20:f4:69:5e:
                    20:93:9a:f2:63:85:3e:3f:fa:ba:b0:ea:b1:89:0f:
                    c0:af:f1:50:d2:30:c2:ed:57:c9:08:72:25:58:63:
                    cc:0a:4b:cb:20:67:3e:54:9e:9d:c5:7e:16:fd:97:
                    89:db:e9:62:8c:0d:e8:b5:12:7a:ce:2d:56:87:9f:
                    3c:a3:aa:91:e4:db:bc:39:2a:98:87:aa:d5:09:5e:
                    50:7b:7d:76:d4:8b:6b:4b:4a:d0:8a:76:da:29:3a:
                    79:0a:cc:1d:4d:51:f4:5e:4c:40:91:d2:d5:55:18:
                    17:17:de:b6:52:42:31:cf:98:f2:ab:21:df:90:f6:
                    2f:d0:ac:33:1e:85:a3:65:ab:0b:42:8b:8a:eb:65:
                    e7:7e:b4:a7:11:eb:fc:ce:df:76:a4:be:fe:1b:52:
                    fa:7a:90:8c:42:9b:8a:89:89:41:7f:17:65:84:01:
                    af:ee:86:74:a2:80:41:d5:ee:c3:db:3b:c6:98:79:
                    7e:92:6d:45:22:76:03:c2:5d:a9:67:8b:09:e2:10:
                    e3:0a:85:c1:68:ab:54:9c:60:d2:b9:58:63:96:56:
                    b8:1e:83:8d:92:ba:f9:61:7b:10:bd:95:fb:2f:0d:
                    31:d3:27:3e:63:e7:00:67:f4:f0:a1:e1:dc:cb:b7:
                    82:28:00:e0:bf:fc:f6:c4:30:ef:03:1d:90:10:8a:
                    74:0c:45:14:54:9c:d0:07:20:43:fc:f8:c4:90:98:
                    ae:61:f5:45:a5:47:7e:75:0b:a6:49:76:09:6e:e8:
                    b6:24:63:5e:a0:97:28:2f:77:a1:6f:ae:8d:8a:1a:
                    d7:23:9e:c7:85:9f:53:f9:eb:83:ab:7e:8c:c8:d9:
                    9a:29:1b:d4:7b:20:5a:5c:e9:94:ec:55:f1:66:70:
                    df:58:29:a7:1e:7f:73:3f:2e:61:50:22:51:db:c6:
                    30:ce:06:52:8a:e6:21:51:3a:2b:ef:0f:16:d3:b7:
                    8b:08:02:8c:06:26:82:88:45:c4:66:93:4b:24:ec:
                    e8:65:ef:20:26:05:81:bd:1e:f9:73:2e:97:a1:f6:
                    ec:c6:16:0c:02:2c:3e:79:a8:61:6c:4a:f9:0f:32:
                    49:f3:39:92:af:dc:dd:e9:ba:0d:34:d9:a1:1d:26:
                    ec:ff:92:69:57:34:f7:bb:49:04:a8:22:5e:34:8a:
                    c0:50:dd:f3:81:ca:64:60:d3:1c:a1:4f:ed:3e:03:
                    6e:69:87
                Exponent: 65537 (0x10001)
        X509v3 extensions:
            X509v3 Basic Constraints: 
                CA:FALSE
            Netscape Cert Type: 
                SSL Server
            Netscape Comment: 
                OpenSSL Generated Server Certificate
            X509v3 Subject Key Identifier: 
                CD:0A:0C:B7:2C:76:DE:2F:06:87:76:A5:6D:8A:37:AB:C6:CE:AC:B2
            X509v3 Authority Key Identifier: 
                keyid:66:71:A7:AA:03:93:C0:4A:14:18:78:22:57:52:DE:1F:3B:BF:75:B9
                DirName:/C=UK/ST=Warwickshire/L=Coventry/O=MEME/emailAddress=Callum@meme.cyber.test
                serial:76:10:B2:4F:78:B6:AE:EF:F8:D1:1E:C8:84:91:CA:16:99:97:02:41

            X509v3 Extended Key Usage: 
                TLS Web Server Authentication
            X509v3 Key Usage: 
                Digital Signature, Key Encipherment
    Signature Algorithm: sha256WithRSAEncryption
         8c:cd:2a:e9:16:42:83:12:f0:be:94:9d:3d:9e:36:02:89:79:
         99:dd:73:a4:78:ef:99:a3:2e:cb:33:f6:0a:a8:e7:f2:64:10:
         d5:47:5f:bd:a5:e0:2b:1b:1e:39:53:b6:ef:1d:de:c3:3a:5e:
         46:6d:d0:17:84:a1:b9:74:44:06:42:50:fb:4c:38:1a:c7:25:
         18:db:43:a0:9d:9f:f0:c1:77:52:53:71:a4:37:d5:09:ea:ca:
         13:d8:d0:85:23:a3:1e:c5:3d:26:f4:85:3d:df:4d:d9:c7:1c:
         76:0f:49:33:eb:52:57:07:e4:ec:58:23:a1:20:56:68:d0:39:
         75:ac:06:bb:33:da:b0:5d:db:42:4e:70:5a:86:fa:14:b9:00:
         25:8f:9a:0c:2d:f6:8b:62:ab:73:65:cb:7f:0d:d6:56:bc:10:
         5c:2c:37:2c:e3:a6:36:84:a9:78:03:4e:35:60:93:92:ed:fd:
         a5:82:4f:e1:e6:b9:89:10:ca:8f:96:b9:93:59:d1:a4:cf:90:
         0b:22:2f:ff:35:b5:f3:1a:d0:a0:9b:ca:e1:2f:18:ea:f8:2c:
         37:80:0c:fb:f0:01:1d:e3:e9:c5:0b:09:60:2c:6c:6d:a4:b2:
         08:70:61:c4:ad:49:4e:c5:64:fe:20:30:a0:6c:5b:50:e4:9b:
         cf:d2:0d:70:a2:90:47:c5:50:3b:fb:01:75:62:44:38:a2:69:
         49:43:94:c6:3f:29:d8:ee:c4:a6:71:91:c9:1a:90:c8:7a:97:
         05:ec:02:15:f3:9f:d6:37:e0:58:3c:95:43:c1:ef:98:23:6e:
         aa:f7:ec:62:f9:33:63:95:3b:49:43:0d:16:7e:e3:e6:c1:bf:
         54:83:22:d3:15:fd:43:66:68:42:4a:fd:cf:af:55:d2:02:1b:
         46:16:2c:9a:08:3f:20:ac:0e:01:d2:97:3f:bf:42:8b:bc:a6:
         46:82:b6:15:cd:6b:4c:6d:f1:c8:c9:22:e6:47:58:e9:ce:19:
         03:2c:b0:ed:ea:17:8d:12:2c:b5:61:c7:5c:a4:69:54:2d:da:
         6e:14:19:d1:2b:c2:9e:dd:7e:5d:e9:1e:62:8d:0f:4b:9b:da:
         7e:14:96:a8:00:b5:49:23:1f:0c:53:0b:6e:d9:1d:0e:66:43:
         84:e2:9e:14:28:12:47:b1:fb:a6:f7:2a:c9:f2:67:ab:11:e3:
         ed:d6:82:e3:5c:54:b8:1d:e7:46:b1:46:4c:75:c1:f3:96:e7:
         7e:e4:f0:e0:2e:d4:0e:46:d1:fd:15:8a:e6:77:50:04:b3:f6:
         ec:8b:b5:ef:c7:84:56:39:85:1b:5d:97:d5:d6:90:a0:8c:e0:
         17:00:7b:73:4a:e4:4e:44
-----BEGIN CERTIFICATE-----
MIIGqDCCBJCgAwIBAgIBATANBgkqhkiG9w0BAQsFADBtMQswCQYDVQQGEwJVSzEV
MBMGA1UECAwMV2Fyd2lja3NoaXJlMREwDwYDVQQHDAhDb3ZlbnRyeTENMAsGA1UE
CgwETUVNRTElMCMGCSqGSIb3DQEJARYWQ2FsbHVtQG1lbWUuY3liZXIudGVzdDAe
Fw0yMTAyMjgwMzQxMDRaFw0zMTAyMjYwMzQxMDRaMHkxCzAJBgNVBAYTAlVLMREw
DwYDVQQIDAhDb3ZlbnRyeTENMAsGA1UECgwETUVNRTEgMB4GA1UEAwwXT3BlblZQ
Ti5tZW1lLmN5YmVyLnRlc3QxJjAkBgkqhkiG9w0BCQEWF09wZW5WUE5AbWVtZS5j
eWJlci50ZXN0MIICIjANBgkqhkiG9w0BAQEFAAOCAg8AMIICCgKCAgEAwTOByCVH
e3XcZjUpnpvroHJQ93Fr6YEfU5LS6bfy8RSDNymgw689fHVNBFbViBqIOi7AHjVP
iiD0aV4gk5ryY4U+P/q6sOqxiQ/Ar/FQ0jDC7VfJCHIlWGPMCkvLIGc+VJ6dxX4W
/ZeJ2+lijA3otRJ6zi1Wh588o6qR5Nu8OSqYh6rVCV5Qe3121ItrS0rQinbaKTp5
CswdTVH0XkxAkdLVVRgXF962UkIxz5jyqyHfkPYv0KwzHoWjZasLQouK62XnfrSn
Eev8zt92pL7+G1L6epCMQpuKiYlBfxdlhAGv7oZ0ooBB1e7D2zvGmHl+km1FInYD
wl2pZ4sJ4hDjCoXBaKtUnGDSuVhjlla4HoONkrr5YXsQvZX7Lw0x0yc+Y+cAZ/Tw
oeHcy7eCKADgv/z2xDDvAx2QEIp0DEUUVJzQByBD/PjEkJiuYfVFpUd+dQumSXYJ
bui2JGNeoJcoL3ehb66NihrXI57HhZ9T+euDq36MyNmaKRvUeyBaXOmU7FXxZnDf
WCmnHn9zPy5hUCJR28YwzgZSiuYhUTor7w8W07eLCAKMBiaCiEXEZpNLJOzoZe8g
JgWBvR75cy6XofbsxhYMAiw+eahhbEr5DzJJ8zmSr9zd6boNNNmhHSbs/5JpVzT3
u0kEqCJeNIrAUN3zgcpkYNMcoU/tPgNuaYcCAwEAAaOCAUUwggFBMAkGA1UdEwQC
MAAwEQYJYIZIAYb4QgEBBAQDAgZAMDMGCWCGSAGG+EIBDQQmFiRPcGVuU1NMIEdl
bmVyYXRlZCBTZXJ2ZXIgQ2VydGlmaWNhdGUwHQYDVR0OBBYEFM0KDLcsdt4vBod2
pW2KN6vGzqyyMIGqBgNVHSMEgaIwgZ+AFGZxp6oDk8BKFBh4IldS3h87v3W5oXGk
bzBtMQswCQYDVQQGEwJVSzEVMBMGA1UECAwMV2Fyd2lja3NoaXJlMREwDwYDVQQH
DAhDb3ZlbnRyeTENMAsGA1UECgwETUVNRTElMCMGCSqGSIb3DQEJARYWQ2FsbHVt
QG1lbWUuY3liZXIudGVzdIIUdhCyT3i2ru/40R7IhJHKFpmXAkEwEwYDVR0lBAww
CgYIKwYBBQUHAwEwCwYDVR0PBAQDAgWgMA0GCSqGSIb3DQEBCwUAA4ICAQCMzSrp
FkKDEvC+lJ09njYCiXmZ3XOkeO+Zoy7LM/YKqOfyZBDVR1+9peArGx45U7bvHd7D
Ol5GbdAXhKG5dEQGQlD7TDgaxyUY20OgnZ/wwXdSU3GkN9UJ6soT2NCFI6MexT0m
9IU9303Zxxx2D0kz61JXB+TsWCOhIFZo0Dl1rAa7M9qwXdtCTnBahvoUuQAlj5oM
LfaLYqtzZct/DdZWvBBcLDcs46Y2hKl4A041YJOS7f2lgk/h5rmJEMqPlrmTWdGk
z5ALIi//NbXzGtCgm8rhLxjq+Cw3gAz78AEd4+nFCwlgLGxtpLIIcGHErUlOxWT+
IDCgbFtQ5JvP0g1wopBHxVA7+wF1YkQ4omlJQ5TGPynY7sSmcZHJGpDIepcF7AIV
85/WN+BYPJVDwe+YI26q9+xi+TNjlTtJQw0WfuPmwb9UgyLTFf1DZmhCSv3Pr1XS
AhtGFiyaCD8grA4B0pc/v0KLvKZGgrYVzWtMbfHIySLmR1jpzhkDLLDt6heNEiy1
YcdcpGlULdpuFBnRK8Ke3X5d6R5ijQ9Lm9p+FJaoALVJIx8MUwtu2R0OZkOE4p4U
KBJHsfum9yrJ8merEePt1oLjXFS4HedGsUZMdcHzlud+5PDgLtQORtH9FYrmd1AE
s/bsi7Xvx4RWOYUbXZfV1pCgjOAXAHtzSuRORA==
-----END CERTIFICATE-----
