Certificate:
    Data:
        Version: 3 (0x2)
        Serial Number: 3 (0x3)
        Signature Algorithm: sha256WithRSAEncryption
        Issuer: C=UK, ST=Warwickshire, L=Coventry, O=MEME/emailAddress=Callum@meme.cyber.test
        Validity
            Not Before: Feb 28 03:42:55 2021 GMT
            Not After : Feb 26 03:42:55 2031 GMT
        Subject: C=UK, ST=Coventry, O=MEME, CN=R-SysAdm-Revoked/emailAddress=R-SysAdm@meme.cyber.test
        Subject Public Key Info:
            Public Key Algorithm: rsaEncryption
                RSA Public-Key: (4096 bit)
                Modulus:
                    00:c0:65:e8:86:ca:47:28:0c:46:d4:d9:43:2a:61:
                    01:aa:d0:37:24:37:37:c0:85:38:7f:af:20:fb:cd:
                    a7:41:67:99:da:73:fe:03:32:33:dd:c8:ef:43:5e:
                    b3:6e:d2:46:12:66:20:a4:3d:eb:d9:1b:ce:cd:6c:
                    67:a9:bc:60:79:98:2a:91:c4:99:b5:cc:9d:db:e9:
                    96:03:c1:1c:92:3b:3d:1a:2c:e0:6d:86:8c:6d:1c:
                    4e:26:6e:b5:7e:88:2a:f6:11:ca:2c:8f:c6:24:81:
                    e7:53:04:f1:fe:3b:3a:30:cd:57:53:fb:ab:86:ae:
                    fa:2f:4f:6e:62:e5:c4:3b:f0:ad:e1:cd:06:84:60:
                    14:2f:18:c3:1d:60:4a:da:2a:20:5d:78:bc:bd:03:
                    f3:af:e3:ad:80:25:1d:97:2a:bf:e4:c7:81:9c:a6:
                    87:ff:d0:e7:ed:63:81:d8:0a:ff:4b:b1:35:85:53:
                    23:ce:73:7b:e5:b3:f1:73:86:b1:aa:76:46:ce:dd:
                    b6:81:03:28:e8:d6:bd:ab:b0:7f:47:8e:19:df:f0:
                    7b:a1:92:47:80:e9:8d:1a:c6:c6:14:bb:bb:c1:8a:
                    ed:6d:f5:4c:be:71:e4:62:f8:36:4b:f9:d0:d2:83:
                    02:55:49:90:9e:cc:c0:0f:cc:d7:e6:7f:be:c5:19:
                    f6:83:ad:92:09:d4:c9:a2:26:0d:37:33:be:20:af:
                    7d:20:d5:a6:54:2b:b0:8c:c0:ed:e6:dd:3e:1b:f9:
                    b3:5a:12:9c:8c:50:d5:df:43:fa:06:65:d2:8a:8b:
                    d3:cb:cd:1b:9b:2a:03:05:dd:f6:f8:b6:c7:cc:9b:
                    12:a4:58:d0:1c:4f:f3:76:f9:8d:96:8d:16:fd:b8:
                    75:03:be:3e:ca:50:c7:5b:0e:ee:60:9a:9c:9a:b4:
                    70:87:47:38:79:36:03:21:f1:03:01:b9:fc:b0:7c:
                    6c:12:7d:d9:03:c3:d1:f8:fd:29:d9:8c:83:ce:38:
                    76:5b:03:09:8d:17:68:ac:47:a1:fc:3b:26:da:4b:
                    76:ec:99:99:da:bf:ca:5a:74:69:70:f5:7d:79:b9:
                    d0:ae:cf:7a:9b:1e:09:cf:d9:1b:4a:67:d2:34:3d:
                    95:8c:a5:1d:a2:1e:d6:90:d9:49:b1:21:16:73:ee:
                    a1:2b:34:f0:d3:85:3e:85:5d:77:39:e8:c7:a3:c3:
                    8d:99:fb:58:34:3b:41:31:24:3f:8d:f4:51:0e:31:
                    4c:c7:4d:fb:3d:cf:ed:91:91:2c:56:3b:c2:59:67:
                    d0:0e:74:59:af:2c:f6:c2:d8:65:e6:19:c2:ec:96:
                    1e:c4:83:2f:36:d6:2e:2d:22:90:1c:ed:c0:2a:27:
                    ba:10:1b
                Exponent: 65537 (0x10001)
        X509v3 extensions:
            X509v3 Basic Constraints: 
                CA:FALSE
            X509v3 Subject Key Identifier: 
                94:7A:24:10:DC:4A:C4:E6:DD:BA:8F:7D:01:7D:2E:97:83:96:76:E6
            X509v3 Authority Key Identifier: 
                keyid:66:71:A7:AA:03:93:C0:4A:14:18:78:22:57:52:DE:1F:3B:BF:75:B9
                DirName:/C=UK/ST=Warwickshire/L=Coventry/O=MEME/emailAddress=Callum@meme.cyber.test
                serial:76:10:B2:4F:78:B6:AE:EF:F8:D1:1E:C8:84:91:CA:16:99:97:02:41

    Signature Algorithm: sha256WithRSAEncryption
         72:91:0d:d9:d3:6c:15:9b:63:c8:c0:68:60:26:bd:6f:92:6e:
         23:88:7a:ec:0e:5b:c7:0d:29:47:fc:51:7d:bd:2a:6c:8c:03:
         e1:90:5e:23:66:79:0c:48:ba:cb:e5:2a:d9:39:13:03:a8:c1:
         d2:8d:5c:84:b3:a2:15:18:32:35:81:28:51:52:a2:36:21:29:
         ff:8b:15:8e:a3:6b:12:0e:c6:2a:41:78:e7:8d:cd:2c:b1:13:
         8a:84:f4:ee:88:8d:29:05:87:7a:3f:29:de:d3:41:a2:87:33:
         e9:ac:01:7f:1c:3b:c5:fe:5e:45:c7:93:fa:67:80:cc:eb:d9:
         90:33:21:b8:58:43:ba:8b:98:ce:6a:d6:d9:2c:95:e0:5e:2c:
         f4:d9:da:34:04:8c:a9:e4:3d:af:63:86:80:a4:9b:db:ad:58:
         f9:e0:10:38:4d:e1:17:43:45:e9:20:82:ab:4b:4d:72:35:0a:
         41:ee:9f:89:49:cc:dc:cd:78:be:9f:f6:69:9e:5f:84:65:a2:
         4f:77:28:de:46:f9:07:11:a6:b2:80:91:55:f5:fe:c8:51:f1:
         db:ac:6d:e6:a4:78:58:9b:de:46:62:7e:9f:2f:f9:ec:19:91:
         5b:d5:fb:25:45:ce:b1:be:b8:ee:4e:56:a3:13:aa:8b:c2:29:
         ae:3b:12:5a:bd:da:ad:8a:59:7d:47:04:80:6a:5a:b2:21:97:
         70:43:b2:11:b5:c4:45:45:08:ea:c7:c7:33:30:6a:7a:46:cf:
         84:6a:d0:19:3f:a6:23:96:8d:d6:b7:58:16:a2:65:d7:c6:e7:
         f7:90:e5:71:c3:89:4d:a8:7e:4c:44:c9:05:ff:9d:cc:b3:fa:
         7e:10:1d:04:59:62:90:de:44:cd:26:46:85:5c:16:80:89:04:
         23:46:f8:9e:4d:da:82:f7:9d:cd:9e:ea:75:65:71:e4:52:9c:
         97:c1:0e:c7:27:8d:9b:c3:13:03:ed:1a:da:07:64:11:96:57:
         2b:8c:58:4f:0f:c1:3d:5f:23:66:78:e5:97:ca:85:8e:23:6d:
         49:3a:21:ef:05:6c:67:c4:3c:14:4d:8e:93:9a:35:9b:76:07:
         e5:9f:95:96:bc:ed:55:78:69:3e:80:19:70:a2:78:99:b4:96:
         0b:4f:ff:5d:54:a0:f8:2e:30:62:35:79:25:31:0e:f4:f3:35:
         31:b1:b2:ec:f6:1e:a9:56:89:d8:7c:10:f6:a5:9e:5b:3a:2d:
         13:4d:d6:e3:4d:c6:b8:69:5a:22:75:4b:53:c0:d3:62:a9:5e:
         a4:ee:75:5d:11:c9:77:24:35:12:72:d7:24:7b:ec:64:13:74:
         74:8a:06:2f:c9:ca:75:3f
-----BEGIN CERTIFICATE-----
MIIGNjCCBB6gAwIBAgIBAzANBgkqhkiG9w0BAQsFADBtMQswCQYDVQQGEwJVSzEV
MBMGA1UECAwMV2Fyd2lja3NoaXJlMREwDwYDVQQHDAhDb3ZlbnRyeTENMAsGA1UE
CgwETUVNRTElMCMGCSqGSIb3DQEJARYWQ2FsbHVtQG1lbWUuY3liZXIudGVzdDAe
Fw0yMTAyMjgwMzQyNTVaFw0zMTAyMjYwMzQyNTVaMHMxCzAJBgNVBAYTAlVLMREw
DwYDVQQIDAhDb3ZlbnRyeTENMAsGA1UECgwETUVNRTEZMBcGA1UEAwwQUi1TeXNB
ZG0tUmV2b2tlZDEnMCUGCSqGSIb3DQEJARYYUi1TeXNBZG1AbWVtZS5jeWJlci50
ZXN0MIICIjANBgkqhkiG9w0BAQEFAAOCAg8AMIICCgKCAgEAwGXohspHKAxG1NlD
KmEBqtA3JDc3wIU4f68g+82nQWeZ2nP+AzIz3cjvQ16zbtJGEmYgpD3r2RvOzWxn
qbxgeZgqkcSZtcyd2+mWA8Eckjs9GizgbYaMbRxOJm61fogq9hHKLI/GJIHnUwTx
/js6MM1XU/urhq76L09uYuXEO/Ct4c0GhGAULxjDHWBK2iogXXi8vQPzr+OtgCUd
lyq/5MeBnKaH/9Dn7WOB2Ar/S7E1hVMjznN75bPxc4axqnZGzt22gQMo6Na9q7B/
R44Z3/B7oZJHgOmNGsbGFLu7wYrtbfVMvnHkYvg2S/nQ0oMCVUmQnszAD8zX5n++
xRn2g62SCdTJoiYNNzO+IK99INWmVCuwjMDt5t0+G/mzWhKcjFDV30P6BmXSiovT
y80bmyoDBd32+LbHzJsSpFjQHE/zdvmNlo0W/bh1A74+ylDHWw7uYJqcmrRwh0c4
eTYDIfEDAbn8sHxsEn3ZA8PR+P0p2YyDzjh2WwMJjRdorEeh/Dsm2kt27JmZ2r/K
WnRpcPV9ebnQrs96mx4Jz9kbSmfSND2VjKUdoh7WkNlJsSEWc+6hKzTw04U+hV13
OejHo8ONmftYNDtBMSQ/jfRRDjFMx037Pc/tkZEsVjvCWWfQDnRZryz2wthl5hnC
7JYexIMvNtYuLSKQHO3AKie6EBsCAwEAAaOB2jCB1zAJBgNVHRMEAjAAMB0GA1Ud
DgQWBBSUeiQQ3ErE5t26j30BfS6Xg5Z25jCBqgYDVR0jBIGiMIGfgBRmcaeqA5PA
ShQYeCJXUt4fO791uaFxpG8wbTELMAkGA1UEBhMCVUsxFTATBgNVBAgMDFdhcndp
Y2tzaGlyZTERMA8GA1UEBwwIQ292ZW50cnkxDTALBgNVBAoMBE1FTUUxJTAjBgkq
hkiG9w0BCQEWFkNhbGx1bUBtZW1lLmN5YmVyLnRlc3SCFHYQsk94tq7v+NEeyISR
yhaZlwJBMA0GCSqGSIb3DQEBCwUAA4ICAQBykQ3Z02wVm2PIwGhgJr1vkm4jiHrs
DlvHDSlH/FF9vSpsjAPhkF4jZnkMSLrL5SrZORMDqMHSjVyEs6IVGDI1gShRUqI2
ISn/ixWOo2sSDsYqQXjnjc0ssROKhPTuiI0pBYd6Pyne00GihzPprAF/HDvF/l5F
x5P6Z4DM69mQMyG4WEO6i5jOatbZLJXgXiz02do0BIyp5D2vY4aApJvbrVj54BA4
TeEXQ0XpIIKrS01yNQpB7p+JSczczXi+n/Zpnl+EZaJPdyjeRvkHEaaygJFV9f7I
UfHbrG3mpHhYm95GYn6fL/nsGZFb1fslRc6xvrjuTlajE6qLwimuOxJavdqtill9
RwSAalqyIZdwQ7IRtcRFRQjqx8czMGp6Rs+EatAZP6Yjlo3Wt1gWomXXxuf3kOVx
w4lNqH5MRMkF/53Ms/p+EB0EWWKQ3kTNJkaFXBaAiQQjRvieTdqC953Nnup1ZXHk
UpyXwQ7HJ42bwxMD7RraB2QRllcrjFhPD8E9XyNmeOWXyoWOI21JOiHvBWxnxDwU
TY6TmjWbdgfln5WWvO1VeGk+gBlwoniZtJYLT/9dVKD4LjBiNXklMQ708zUxsbLs
9h6pVonYfBD2pZ5bOi0TTdbjTca4aVoidUtTwNNiqV6k7nVdEcl3JDUSctcke+xk
E3R0igYvycp1Pw==
-----END CERTIFICATE-----
